; Function Attrs: nounwind uwtable
define internal fastcc i32 @lsarpc_dissect_lsa_DomainInformationPolicy(ptr noundef %0, i32 noundef %1, ptr noundef %2, ptr noundef %3, ptr noundef %4, ptr noundef %5, i32 noundef %6) unnamed_addr #0 {
  %8 = alloca ptr, align 8
  %9 = alloca i32, align 4
  store ptr null, ptr %8, align 8
  %.not = icmp eq ptr %3, null
  br i1 %.not, label %13, label %10

10:                                               ; preds = %7
  %11 = load i32, ptr @ett_lsarpc_lsa_DomainInformationPolicy, align 4
  %12 = call ptr @proto_tree_add_subtree(ptr noundef nonnull %3, ptr noundef %0, i32 noundef %1, i32 noundef -1, i32 noundef %11, ptr noundef nonnull %8, ptr noundef nonnull @.str.1186) #5
  br label %13

13:                                               ; preds = %10, %7
  %.035 = phi ptr [ %12, %10 ], [ null, %7 ]
  %14 = call i32 @dissect_ndr_uint1632(ptr noundef %0, i32 noundef %1, ptr noundef %2, ptr noundef %.035, ptr noundef %4, ptr noundef %5, i32 noundef %6, ptr noundef nonnull %9) #5
  %15 = getelementptr inbounds nuw i8, ptr %4, i64 28
  %16 = load i32, ptr %15, align 4
  %.not37 = icmp ne i32 %16, 0
  %17 = and i32 %14, 7
  %.not38 = icmp eq i32 %17, 0
  %or.cond = select i1 %.not37, i1 true, i1 %.not38
  %18 = and i32 %14, -8
  %19 = add i32 %18, 8
  %.0 = select i1 %or.cond, i32 %14, i32 %19
  %20 = load i32, ptr %9, align 4
  switch i32 %20, label %30 [
    i32 1, label %21
    i32 2, label %24
    i32 3, label %27
  ]

21:                                               ; preds = %13
  %22 = load i32, ptr @hf_lsarpc_lsa_DomainInformationPolicy_qos_info, align 4
  %23 = call i32 @lsarpc_dissect_struct_lsa_DomainInfoQoS(ptr noundef %0, i32 noundef %.0, ptr noundef %2, ptr noundef %.035, ptr noundef nonnull %4, ptr noundef %5, i32 noundef %22, i32 poison)
  br label %30

24:                                               ; preds = %13
  %25 = load i32, ptr @hf_lsarpc_lsa_DomainInformationPolicy_efs_info, align 4
  %26 = call i32 @lsarpc_dissect_struct_lsa_DomainInfoEfs(ptr noundef %0, i32 noundef %.0, ptr noundef %2, ptr noundef %.035, ptr noundef nonnull %4, ptr noundef %5, i32 noundef %25, i32 poison)
  br label %30

27:                                               ; preds = %13
  %28 = load i32, ptr @hf_lsarpc_lsa_DomainInformationPolicy_kerberos_info, align 4
  %29 = call i32 @lsarpc_dissect_struct_lsa_DomainInfoKerberos(ptr noundef %0, i32 noundef %.0, ptr noundef %2, ptr noundef %.035, ptr noundef nonnull %4, ptr noundef %5, i32 noundef %28, i32 poison)
  br label %30

30:                                               ; preds = %27, %24, %21, %13
  %.1 = phi i32 [ %.0, %13 ], [ %29, %27 ], [ %26, %24 ], [ %23, %21 ]
  %31 = load ptr, ptr %8, align 8
  %32 = sub i32 %.1, %1
  call void @proto_item_set_len(ptr noundef %31, i32 noundef %32) #5
  ret i32 %.1
}